target datalayout = "e-m:e-p270:32:32-p271:32:32-p272:64:64-i64:64-i128:128-f80:128-n8:16:32:64-S128"
target triple = "x86_64-pc-linux-gnu"

%struct.ObjectAddress = type { i32, i32, i32 }
%struct.FunctionCallInfoBaseData = type { ptr, ptr, ptr, i32, i8, i16, [0 x %struct.NullableDatum] }
%struct.NullableDatum = type { i64, i8 }

; Function Attrs: inlinehint nounwind uwtable
define internal i64 @PointerGetDatum(ptr noundef %0) #4 {
  %2 = alloca ptr, align 8
  store ptr %0, ptr %2, align 8
  %3 = load ptr, ptr %2, align 8
  %4 = ptrtoint ptr %3 to i64
  ret i64 %4
}

; Function Attrs: inlinehint nounwind uwtable
define internal i32 @DatumGetInt32(i64 noundef %0) #4 {
  %2 = alloca i64, align 8
  store i64 %0, ptr %2, align 8
  %3 = load i64, ptr %2, align 8
  %4 = trunc i64 %3 to i32
  ret i32 %4
}

; Function Attrs: inlinehint nounwind uwtable
define internal i32 @DatumGetObjectId(i64 noundef %0) #4 {
  %2 = alloca i64, align 8
  store i64 %0, ptr %2, align 8
  %3 = load i64, ptr %2, align 8
  %4 = trunc i64 %3 to i32
  ret i32 %4
}

; Function Attrs: nounwind uwtable
define dso_local i64 @pg_describe_object(ptr noundef %0) #0 {
  %2 = alloca i64, align 8
  %3 = alloca ptr, align 8
  %4 = alloca i32, align 4
  %5 = alloca i32, align 4
  %6 = alloca i32, align 4
  %7 = alloca ptr, align 8
  %8 = alloca %struct.ObjectAddress, align 4
  %9 = alloca i32, align 4
  store ptr %0, ptr %3, align 8
  call void @llvm.lifetime.start.p0(i64 4, ptr %4) #10
  %10 = load ptr, ptr %3, align 8
  %11 = getelementptr inbounds nuw %struct.FunctionCallInfoBaseData, ptr %10, i32 0, i32 6
  %12 = getelementptr inbounds [0 x %struct.NullableDatum], ptr %11, i64 0, i64 0
  %13 = getelementptr inbounds nuw %struct.NullableDatum, ptr %12, i32 0, i32 0
  %14 = load i64, ptr %13, align 8
  %15 = call i32 @DatumGetObjectId(i64 noundef %14)
  store i32 %15, ptr %4, align 4
  call void @llvm.lifetime.start.p0(i64 4, ptr %5) #10
  %16 = load ptr, ptr %3, align 8
  %17 = getelementptr inbounds nuw %struct.FunctionCallInfoBaseData, ptr %16, i32 0, i32 6
  %18 = getelementptr inbounds [0 x %struct.NullableDatum], ptr %17, i64 0, i64 1
  %19 = getelementptr inbounds nuw %struct.NullableDatum, ptr %18, i32 0, i32 0
  %20 = load i64, ptr %19, align 8
  %21 = call i32 @DatumGetObjectId(i64 noundef %20)
  store i32 %21, ptr %5, align 4
  call void @llvm.lifetime.start.p0(i64 4, ptr %6) #10
  %22 = load ptr, ptr %3, align 8
  %23 = getelementptr inbounds nuw %struct.FunctionCallInfoBaseData, ptr %22, i32 0, i32 6
  %24 = getelementptr inbounds [0 x %struct.NullableDatum], ptr %23, i64 0, i64 2
  %25 = getelementptr inbounds nuw %struct.NullableDatum, ptr %24, i32 0, i32 0
  %26 = load i64, ptr %25, align 8
  %27 = call i32 @DatumGetInt32(i64 noundef %26)
  store i32 %27, ptr %6, align 4
  call void @llvm.lifetime.start.p0(i64 8, ptr %7) #10
  call void @llvm.lifetime.start.p0(i64 12, ptr %8) #10
  %28 = load i32, ptr %4, align 4
  %29 = icmp ne i32 %28, 0
  br i1 %29, label %39, label %30

30:                                               ; preds = %1
  %31 = load i32, ptr %5, align 4
  %32 = icmp ne i32 %31, 0
  br i1 %32, label %39, label %33

33:                                               ; preds = %30
  br label %34

34:                                               ; preds = %33
  %35 = load ptr, ptr %3, align 8
  %36 = getelementptr inbounds nuw %struct.FunctionCallInfoBaseData, ptr %35, i32 0, i32 4
  store i8 1, ptr %36, align 4
  store i64 0, ptr %2, align 8
  store i32 1, ptr %9, align 4
  br label %59

37:                                               ; No predecessors!
  br label %38

38:                                               ; preds = %37
  br label %39

39:                                               ; preds = %38, %30, %1
  %40 = load i32, ptr %4, align 4
  %41 = getelementptr inbounds nuw %struct.ObjectAddress, ptr %8, i32 0, i32 0
  store i32 %40, ptr %41, align 4
  %42 = load i32, ptr %5, align 4
  %43 = getelementptr inbounds nuw %struct.ObjectAddress, ptr %8, i32 0, i32 1
  store i32 %42, ptr %43, align 4
  %44 = load i32, ptr %6, align 4
  %45 = getelementptr inbounds nuw %struct.ObjectAddress, ptr %8, i32 0, i32 2
  store i32 %44, ptr %45, align 4
  %46 = call ptr @getObjectDescription(ptr noundef %8, i1 noundef zeroext true)
  store ptr %46, ptr %7, align 8
  %47 = load ptr, ptr %7, align 8
  %48 = icmp eq ptr %47, null
  br i1 %48, label %49, label %55

49:                                               ; preds = %39
  br label %50

50:                                               ; preds = %49
  %51 = load ptr, ptr %3, align 8
  %52 = getelementptr inbounds nuw %struct.FunctionCallInfoBaseData, ptr %51, i32 0, i32 4
  store i8 1, ptr %52, align 4
  store i64 0, ptr %2, align 8
  store i32 1, ptr %9, align 4
  br label %59

53:                                               ; No predecessors!
  br label %54

54:                                               ; preds = %53
  br label %55

55:                                               ; preds = %54, %39
  %56 = load ptr, ptr %7, align 8
  %57 = call ptr @cstring_to_text(ptr noundef %56)
  %58 = call i64 @PointerGetDatum(ptr noundef %57)
  store i64 %58, ptr %2, align 8
  store i32 1, ptr %9, align 4
  br label %59

59:                                               ; preds = %55, %50, %34
  call void @llvm.lifetime.end.p0(i64 12, ptr %8) #10
  call void @llvm.lifetime.end.p0(i64 8, ptr %7) #10
  call void @llvm.lifetime.end.p0(i64 4, ptr %6) #10
  call void @llvm.lifetime.end.p0(i64 4, ptr %5) #10
  call void @llvm.lifetime.end.p0(i64 4, ptr %4) #10
  %60 = load i64, ptr %2, align 8
  ret i64 %60
}