; Function Attrs: nounwind uwtable
define dso_local i64 @pg_describe_object(ptr noundef captures(none) %0) local_unnamed_addr #0 {
  %2 = alloca %struct.ObjectAddress, align 4
  %3 = getelementptr inbounds nuw i8, ptr %0, i64 32
  %4 = load i64, ptr %3, align 8
  %5 = trunc i64 %4 to i32
  %6 = getelementptr inbounds nuw i8, ptr %0, i64 48
  %7 = load i64, ptr %6, align 8
  %8 = trunc i64 %7 to i32
  %9 = getelementptr inbounds nuw i8, ptr %0, i64 64
  %10 = load i64, ptr %9, align 8
  call void @llvm.lifetime.start.p0(i64 12, ptr nonnull %2) #11
  %11 = icmp ne i32 %5, 0
  %12 = icmp ne i32 %8, 0
  %or.cond = select i1 %11, i1 true, i1 %12
  br i1 %or.cond, label %15, label %13

13:                                               ; preds = %1
  %14 = getelementptr inbounds nuw i8, ptr %0, i64 28
  store i8 1, ptr %14, align 4
  br label %26

15:                                               ; preds = %1
  %16 = trunc i64 %10 to i32
  store i32 %5, ptr %2, align 4
  %17 = getelementptr inbounds nuw i8, ptr %2, i64 4
  store i32 %8, ptr %17, align 4
  %18 = getelementptr inbounds nuw i8, ptr %2, i64 8
  store i32 %16, ptr %18, align 4
  %19 = call ptr @getObjectDescription(ptr noundef nonnull %2, i1 noundef zeroext true)
  %20 = icmp eq ptr %19, null
  br i1 %20, label %21, label %23

21:                                               ; preds = %15
  %22 = getelementptr inbounds nuw i8, ptr %0, i64 28
  store i8 1, ptr %22, align 4
  br label %26

23:                                               ; preds = %15
  %24 = call ptr @cstring_to_text(ptr noundef nonnull %19) #11
  %25 = ptrtoint ptr %24 to i64
  br label %26

26:                                               ; preds = %23, %21, %13
  %.0 = phi i64 [ 0, %21 ], [ %25, %23 ], [ 0, %13 ]
  call void @llvm.lifetime.end.p0(i64 12, ptr nonnull %2) #11
  ret i64 %.0
}